target datalayout = "e-m:e-p270:32:32-p271:32:32-p272:64:64-i64:64-i128:128-f80:128-n8:16:32:64-S128"
target triple = "x86_64-pc-linux-gnu"

%"struct.faiss::simd16uint16" = type { %"struct.faiss::simd256bit" }
%"struct.faiss::simd256bit" = type { %union.anon.0 }
%union.anon.0 = type { [8 x i32] }

; Function Attrs: mustprogress nounwind uwtable
define linkonce_odr void @_ZNK5faiss10simd256bit6storeuEPv(ptr noundef nonnull align 4 dereferenceable(32) %0, ptr noundef %1) #1 comdat align 2 {
  %3 = alloca ptr, align 8
  %4 = alloca ptr, align 8
  store ptr %0, ptr %3, align 8
  store ptr %1, ptr %4, align 8
  %5 = load ptr, ptr %3, align 8
  %6 = load ptr, ptr %4, align 8
  %7 = getelementptr inbounds %"struct.faiss::simd256bit", ptr %5, i32 0, i32 0
  %8 = getelementptr inbounds [32 x i8], ptr %7, i64 0, i64 0
  call void @llvm.memcpy.p0.p0.i64(ptr align 1 %6, ptr align 4 %8, i64 32, i1 false)
  ret void
}

; Function Attrs: mustprogress nounwind uwtable
define linkonce_odr void @_ZN5faiss10simd256bitC2EPKv(ptr noundef nonnull align 4 dereferenceable(32) %0, ptr noundef %1) unnamed_addr #1 comdat align 2 {
  %3 = alloca ptr, align 8
  %4 = alloca ptr, align 8
  store ptr %0, ptr %3, align 8
  store ptr %1, ptr %4, align 8
  %5 = load ptr, ptr %3, align 8
  %6 = getelementptr inbounds %"struct.faiss::simd256bit", ptr %5, i32 0, i32 0
  %7 = getelementptr inbounds [32 x i8], ptr %6, i64 0, i64 0
  %8 = load ptr, ptr %4, align 8
  call void @llvm.memcpy.p0.p0.i64(ptr align 4 %7, ptr align 1 %8, i64 32, i1 false)
  ret void
}

; Function Attrs: mustprogress nounwind uwtable
define linkonce_odr void @_ZN5faiss12simd16uint164set1Et(ptr noundef nonnull align 4 dereferenceable(32) %0, i16 noundef zeroext %1) #1 comdat align 2 {
  %3 = alloca ptr, align 8
  %4 = alloca i16, align 2
  %5 = alloca i32, align 4
  store ptr %0, ptr %3, align 8
  store i16 %1, ptr %4, align 2
  %6 = load ptr, ptr %3, align 8
  store i32 0, ptr %5, align 4
  br label %7

7:                                                ; preds = %16, %2
  %8 = load i32, ptr %5, align 4
  %9 = icmp slt i32 %8, 16
  br i1 %9, label %10, label %19

10:                                               ; preds = %7
  %11 = load i16, ptr %4, align 2
  %12 = getelementptr inbounds %"struct.faiss::simd256bit", ptr %6, i32 0, i32 0
  %13 = load i32, ptr %5, align 4
  %14 = sext i32 %13 to i64
  %15 = getelementptr inbounds [16 x i16], ptr %12, i64 0, i64 %14
  store i16 %11, ptr %15, align 2
  br label %16

16:                                               ; preds = %10
  %17 = load i32, ptr %5, align 4
  %18 = add nsw i32 %17, 1
  store i32 %18, ptr %5, align 4
  br label %7, !llvm.loop !35

19:                                               ; preds = %7
  ret void
}

; Function Attrs: mustprogress nounwind uwtable
define linkonce_odr void @_ZN5faiss10simd256bitC2Ev(ptr noundef nonnull align 4 dereferenceable(32) %0) unnamed_addr #1 comdat align 2 {
  %2 = alloca ptr, align 8
  store ptr %0, ptr %2, align 8
  ret void
}

; Function Attrs: mustprogress nounwind uwtable
define linkonce_odr noundef nonnull align 2 dereferenceable(2) ptr @_ZSt3maxItERKT_S2_S2_(ptr noundef nonnull align 2 dereferenceable(2) %0, ptr noundef nonnull align 2 dereferenceable(2) %1) #1 comdat {
  %3 = alloca ptr, align 8
  %4 = alloca ptr, align 8
  %5 = alloca ptr, align 8
  store ptr %0, ptr %4, align 8
  store ptr %1, ptr %5, align 8
  %6 = load ptr, ptr %4, align 8
  %7 = load i16, ptr %6, align 2
  %8 = zext i16 %7 to i32
  %9 = load ptr, ptr %5, align 8
  %10 = load i16, ptr %9, align 2
  %11 = zext i16 %10 to i32
  %12 = icmp slt i32 %8, %11
  br i1 %12, label %13, label %15

13:                                               ; preds = %2
  %14 = load ptr, ptr %5, align 8
  store ptr %14, ptr %3, align 8
  br label %17

15:                                               ; preds = %2
  %16 = load ptr, ptr %4, align 8
  store ptr %16, ptr %3, align 8
  br label %17

17:                                               ; preds = %15, %13
  %18 = load ptr, ptr %3, align 8
  ret ptr %18
}

; Function Attrs: mustprogress nounwind uwtable
define linkonce_odr noundef nonnull align 2 dereferenceable(2) ptr @_ZSt3minItERKT_S2_S2_(ptr noundef nonnull align 2 dereferenceable(2) %0, ptr noundef nonnull align 2 dereferenceable(2) %1) #1 comdat {
  %3 = alloca ptr, align 8
  %4 = alloca ptr, align 8
  %5 = alloca ptr, align 8
  store ptr %0, ptr %4, align 8
  store ptr %1, ptr %5, align 8
  %6 = load ptr, ptr %5, align 8
  %7 = load i16, ptr %6, align 2
  %8 = zext i16 %7 to i32
  %9 = load ptr, ptr %4, align 8
  %10 = load i16, ptr %9, align 2
  %11 = zext i16 %10 to i32
  %12 = icmp slt i32 %8, %11
  br i1 %12, label %13, label %15

13:                                               ; preds = %2
  %14 = load ptr, ptr %5, align 8
  store ptr %14, ptr %3, align 8
  br label %17

15:                                               ; preds = %2
  %16 = load ptr, ptr %4, align 8
  store ptr %16, ptr %3, align 8
  br label %17

17:                                               ; preds = %15, %13
  %18 = load ptr, ptr %3, align 8
  ret ptr %18
}

; Function Attrs: mustprogress uwtable
define linkonce_odr void @_ZNK5faiss10simd256bit5storeEPv(ptr noundef nonnull align 4 dereferenceable(32) %0, ptr noundef %1) #0 comdat align 2 {
  %3 = alloca ptr, align 8
  %4 = alloca ptr, align 8
  store ptr %0, ptr %3, align 8
  store ptr %1, ptr %4, align 8
  %5 = load ptr, ptr %3, align 8
  %6 = load ptr, ptr %4, align 8
  call void @_ZNK5faiss10simd256bit6storeuEPv(ptr noundef nonnull align 4 dereferenceable(32) %5, ptr noundef %6)
  ret void
}

; Function Attrs: mustprogress nounwind uwtable
define linkonce_odr void @_ZN5faiss12simd16uint168accu_maxERKS0_(ptr noundef nonnull align 4 dereferenceable(32) %0, ptr noundef nonnull align 4 dereferenceable(32) %1) #1 comdat align 2 {
  %3 = alloca ptr, align 8
  %4 = alloca ptr, align 8
  %5 = alloca i32, align 4
  store ptr %0, ptr %3, align 8
  store ptr %1, ptr %4, align 8
  %6 = load ptr, ptr %3, align 8
  store i32 0, ptr %5, align 4
  br label %7

7:                                                ; preds = %37, %2
  %8 = load i32, ptr %5, align 4
  %9 = icmp slt i32 %8, 16
  br i1 %9, label %10, label %40

10:                                               ; preds = %7
  %11 = load ptr, ptr %4, align 8
  %12 = getelementptr inbounds %"struct.faiss::simd256bit", ptr %11, i32 0, i32 0
  %13 = load i32, ptr %5, align 4
  %14 = sext i32 %13 to i64
  %15 = getelementptr inbounds [16 x i16], ptr %12, i64 0, i64 %14
  %16 = load i16, ptr %15, align 2
  %17 = zext i16 %16 to i32
  %18 = getelementptr inbounds %"struct.faiss::simd256bit", ptr %6, i32 0, i32 0
  %19 = load i32, ptr %5, align 4
  %20 = sext i32 %19 to i64
  %21 = getelementptr inbounds [16 x i16], ptr %18, i64 0, i64 %20
  %22 = load i16, ptr %21, align 2
  %23 = zext i16 %22 to i32
  %24 = icmp sgt i32 %17, %23
  br i1 %24, label %25, label %36

25:                                               ; preds = %10
  %26 = load ptr, ptr %4, align 8
  %27 = getelementptr inbounds %"struct.faiss::simd256bit", ptr %26, i32 0, i32 0
  %28 = load i32, ptr %5, align 4
  %29 = sext i32 %28 to i64
  %30 = getelementptr inbounds [16 x i16], ptr %27, i64 0, i64 %29
  %31 = load i16, ptr %30, align 2
  %32 = getelementptr inbounds %"struct.faiss::simd256bit", ptr %6, i32 0, i32 0
  %33 = load i32, ptr %5, align 4
  %34 = sext i32 %33 to i64
  %35 = getelementptr inbounds [16 x i16], ptr %32, i64 0, i64 %34
  store i16 %31, ptr %35, align 2
  br label %36

36:                                               ; preds = %25, %10
  br label %37

37:                                               ; preds = %36
  %38 = load i32, ptr %5, align 4
  %39 = add nsw i32 %38, 1
  store i32 %39, ptr %5, align 4
  br label %7, !llvm.loop !34

40:                                               ; preds = %7
  ret void
}

; Function Attrs: mustprogress nounwind uwtable
define linkonce_odr void @_ZN5faiss12simd16uint168accu_minERKS0_(ptr noundef nonnull align 4 dereferenceable(32) %0, ptr noundef nonnull align 4 dereferenceable(32) %1) #1 comdat align 2 {
  %3 = alloca ptr, align 8
  %4 = alloca ptr, align 8
  %5 = alloca i32, align 4
  store ptr %0, ptr %3, align 8
  store ptr %1, ptr %4, align 8
  %6 = load ptr, ptr %3, align 8
  store i32 0, ptr %5, align 4
  br label %7

7:                                                ; preds = %37, %2
  %8 = load i32, ptr %5, align 4
  %9 = icmp slt i32 %8, 16
  br i1 %9, label %10, label %40

10:                                               ; preds = %7
  %11 = load ptr, ptr %4, align 8
  %12 = getelementptr inbounds %"struct.faiss::simd256bit", ptr %11, i32 0, i32 0
  %13 = load i32, ptr %5, align 4
  %14 = sext i32 %13 to i64
  %15 = getelementptr inbounds [16 x i16], ptr %12, i64 0, i64 %14
  %16 = load i16, ptr %15, align 2
  %17 = zext i16 %16 to i32
  %18 = getelementptr inbounds %"struct.faiss::simd256bit", ptr %6, i32 0, i32 0
  %19 = load i32, ptr %5, align 4
  %20 = sext i32 %19 to i64
  %21 = getelementptr inbounds [16 x i16], ptr %18, i64 0, i64 %20
  %22 = load i16, ptr %21, align 2
  %23 = zext i16 %22 to i32
  %24 = icmp slt i32 %17, %23
  br i1 %24, label %25, label %36

25:                                               ; preds = %10
  %26 = load ptr, ptr %4, align 8
  %27 = getelementptr inbounds %"struct.faiss::simd256bit", ptr %26, i32 0, i32 0
  %28 = load i32, ptr %5, align 4
  %29 = sext i32 %28 to i64
  %30 = getelementptr inbounds [16 x i16], ptr %27, i64 0, i64 %29
  %31 = load i16, ptr %30, align 2
  %32 = getelementptr inbounds %"struct.faiss::simd256bit", ptr %6, i32 0, i32 0
  %33 = load i32, ptr %5, align 4
  %34 = sext i32 %33 to i64
  %35 = getelementptr inbounds [16 x i16], ptr %32, i64 0, i64 %34
  store i16 %31, ptr %35, align 2
  br label %36

36:                                               ; preds = %25, %10
  br label %37

37:                                               ; preds = %36
  %38 = load i32, ptr %5, align 4
  %39 = add nsw i32 %38, 1
  store i32 %39, ptr %5, align 4
  br label %7, !llvm.loop !33

40:                                               ; preds = %7
  ret void
}

; Function Attrs: mustprogress uwtable
define linkonce_odr void @_ZN5faiss12simd16uint16C2EPKt(ptr noundef nonnull align 4 dereferenceable(32) %0, ptr noundef %1) unnamed_addr #0 comdat align 2 {
  %3 = alloca ptr, align 8
  %4 = alloca ptr, align 8
  store ptr %0, ptr %3, align 8
  store ptr %1, ptr %4, align 8
  %5 = load ptr, ptr %3, align 8
  %6 = load ptr, ptr %4, align 8
  call void @_ZN5faiss10simd256bitC2EPKv(ptr noundef nonnull align 4 dereferenceable(32) %5, ptr noundef %6)
  ret void
}

; Function Attrs: mustprogress uwtable
define linkonce_odr void @_ZN5faiss12simd16uint16C2Ei(ptr noundef nonnull align 4 dereferenceable(32) %0, i32 noundef %1) unnamed_addr #0 comdat align 2 {
  %3 = alloca ptr, align 8
  %4 = alloca i32, align 4
  store ptr %0, ptr %3, align 8
  store i32 %1, ptr %4, align 4
  %5 = load ptr, ptr %3, align 8
  call void @_ZN5faiss10simd256bitC2Ev(ptr noundef nonnull align 4 dereferenceable(32) %5)
  %6 = load i32, ptr %4, align 4
  %7 = trunc i32 %6 to i16
  call void @_ZN5faiss12simd16uint164set1Et(ptr noundef nonnull align 4 dereferenceable(32) %5, i16 noundef zeroext %7)
  ret void
}

; Function Attrs: mustprogress uwtable
define void @_ZN5faiss17simd_partitioning12find_minimaxEPKtmRtS3_(ptr noundef %0, i64 noundef %1, ptr noundef nonnull align 2 dereferenceable(2) %2, ptr noundef nonnull align 2 dereferenceable(2) %3) #0 {
  %5 = alloca ptr, align 8
  %6 = alloca i64, align 8
  %7 = alloca ptr, align 8
  %8 = alloca ptr, align 8
  %9 = alloca %"struct.faiss::simd16uint16", align 4
  %10 = alloca %"struct.faiss::simd16uint16", align 4
  %11 = alloca i64, align 8
  %12 = alloca %"struct.faiss::simd16uint16", align 4
  %13 = alloca [32 x i16], align 32
  %14 = alloca i32, align 4
  %15 = alloca i64, align 8
  store ptr %0, ptr %5, align 8
  store i64 %1, ptr %6, align 8
  store ptr %2, ptr %7, align 8
  store ptr %3, ptr %8, align 8
  call void @_ZN5faiss12simd16uint16C2Ei(ptr noundef nonnull align 4 dereferenceable(32) %9, i32 noundef 65535)
  call void @_ZN5faiss12simd16uint16C2Ei(ptr noundef nonnull align 4 dereferenceable(32) %10, i32 noundef 0)
  store i64 0, ptr %11, align 8
  br label %16

16:                                               ; preds = %25, %4
  %17 = load i64, ptr %11, align 8
  %18 = add i64 %17, 15
  %19 = load i64, ptr %6, align 8
  %20 = icmp ult i64 %18, %19
  br i1 %20, label %21, label %28

21:                                               ; preds = %16
  %22 = load ptr, ptr %5, align 8
  %23 = load i64, ptr %11, align 8
  %24 = getelementptr inbounds i16, ptr %22, i64 %23
  call void @_ZN5faiss12simd16uint16C2EPKt(ptr noundef nonnull align 4 dereferenceable(32) %12, ptr noundef %24)
  call void @_ZN5faiss12simd16uint168accu_minERKS0_(ptr noundef nonnull align 4 dereferenceable(32) %9, ptr noundef nonnull align 4 dereferenceable(32) %12)
  call void @_ZN5faiss12simd16uint168accu_maxERKS0_(ptr noundef nonnull align 4 dereferenceable(32) %10, ptr noundef nonnull align 4 dereferenceable(32) %12)
  br label %25

25:                                               ; preds = %21
  %26 = load i64, ptr %11, align 8
  %27 = add i64 %26, 16
  store i64 %27, ptr %11, align 8
  br label %16, !llvm.loop !30

28:                                               ; preds = %16
  %29 = getelementptr inbounds [32 x i16], ptr %13, i64 0, i64 0
  call void @_ZNK5faiss10simd256bit5storeEPv(ptr noundef nonnull align 4 dereferenceable(32) %9, ptr noundef %29)
  %30 = getelementptr inbounds [32 x i16], ptr %13, i64 0, i64 0
  %31 = getelementptr inbounds i16, ptr %30, i64 16
  call void @_ZNK5faiss10simd256bit5storeEPv(ptr noundef nonnull align 4 dereferenceable(32) %10, ptr noundef %31)
  %32 = getelementptr inbounds [32 x i16], ptr %13, i64 0, i64 0
  %33 = load i16, ptr %32, align 32
  %34 = load ptr, ptr %7, align 8
  store i16 %33, ptr %34, align 2
  %35 = getelementptr inbounds [32 x i16], ptr %13, i64 0, i64 16
  %36 = load i16, ptr %35, align 32
  %37 = load ptr, ptr %8, align 8
  store i16 %36, ptr %37, align 2
  store i32 1, ptr %14, align 4
  br label %38

38:                                               ; preds = %57, %28
  %39 = load i32, ptr %14, align 4
  %40 = icmp slt i32 %39, 16
  br i1 %40, label %41, label %60

41:                                               ; preds = %38
  %42 = load ptr, ptr %7, align 8
  %43 = load i32, ptr %14, align 4
  %44 = sext i32 %43 to i64
  %45 = getelementptr inbounds [32 x i16], ptr %13, i64 0, i64 %44
  %46 = call noundef nonnull align 2 dereferenceable(2) ptr @_ZSt3minItERKT_S2_S2_(ptr noundef nonnull align 2 dereferenceable(2) %42, ptr noundef nonnull align 2 dereferenceable(2) %45)
  %47 = load i16, ptr %46, align 2
  %48 = load ptr, ptr %7, align 8
  store i16 %47, ptr %48, align 2
  %49 = load ptr, ptr %8, align 8
  %50 = load i32, ptr %14, align 4
  %51 = add nsw i32 %50, 16
  %52 = sext i32 %51 to i64
  %53 = getelementptr inbounds [32 x i16], ptr %13, i64 0, i64 %52
  %54 = call noundef nonnull align 2 dereferenceable(2) ptr @_ZSt3maxItERKT_S2_S2_(ptr noundef nonnull align 2 dereferenceable(2) %49, ptr noundef nonnull align 2 dereferenceable(2) %53)
  %55 = load i16, ptr %54, align 2
  %56 = load ptr, ptr %8, align 8
  store i16 %55, ptr %56, align 2
  br label %57

57:                                               ; preds = %41
  %58 = load i32, ptr %14, align 4
  %59 = add nsw i32 %58, 1
  store i32 %59, ptr %14, align 4
  br label %38, !llvm.loop !31

60:                                               ; preds = %38
  %61 = load i64, ptr %6, align 8
  %62 = and i64 %61, -16
  store i64 %62, ptr %15, align 8
  br label %63

63:                                               ; preds = %82, %60
  %64 = load i64, ptr %15, align 8
  %65 = load i64, ptr %6, align 8
  %66 = icmp ult i64 %64, %65
  br i1 %66, label %67, label %85

67:                                               ; preds = %63
  %68 = load ptr, ptr %7, align 8
  %69 = load ptr, ptr %5, align 8
  %70 = load i64, ptr %15, align 8
  %71 = getelementptr inbounds i16, ptr %69, i64 %70
  %72 = call noundef nonnull align 2 dereferenceable(2) ptr @_ZSt3minItERKT_S2_S2_(ptr noundef nonnull align 2 dereferenceable(2) %68, ptr noundef nonnull align 2 dereferenceable(2) %71)
  %73 = load i16, ptr %72, align 2
  %74 = load ptr, ptr %7, align 8
  store i16 %73, ptr %74, align 2
  %75 = load ptr, ptr %8, align 8
  %76 = load ptr, ptr %5, align 8
  %77 = load i64, ptr %15, align 8
  %78 = getelementptr inbounds i16, ptr %76, i64 %77
  %79 = call noundef nonnull align 2 dereferenceable(2) ptr @_ZSt3maxItERKT_S2_S2_(ptr noundef nonnull align 2 dereferenceable(2) %75, ptr noundef nonnull align 2 dereferenceable(2) %78)
  %80 = load i16, ptr %79, align 2
  %81 = load ptr, ptr %8, align 8
  store i16 %80, ptr %81, align 2
  br label %82

82:                                               ; preds = %67
  %83 = load i64, ptr %15, align 8
  %84 = add i64 %83, 1
  store i64 %84, ptr %15, align 8
  br label %63, !llvm.loop !32

85:                                               ; preds = %63
  ret void
}