; Function Attrs: mustprogress nofree norecurse nosync nounwind memory(argmem: readwrite) uwtable
define void @_ZN5faiss17simd_partitioning12find_minimaxEPKtmRtS3_(ptr nocapture noundef readonly %0, i64 noundef %1, ptr nocapture noundef nonnull align 2 dereferenceable(2) %2, ptr nocapture noundef nonnull align 2 dereferenceable(2) %3) local_unnamed_addr #5 {
_ZN5faiss12simd16uint16C2Ei.exit.preheader:
  %4 = alloca %"struct.faiss::simd16uint16", align 4
  %5 = alloca %"struct.faiss::simd16uint16", align 4
  %6 = alloca %"struct.faiss::simd16uint16", align 4
  %7 = alloca [32 x i16], align 32
  call void @llvm.memset.p0.i64(ptr noundef nonnull align 4 dereferenceable(32) %4, i8 -1, i64 32, i1 false)
  call void @llvm.memset.p0.i64(ptr noundef nonnull align 4 dereferenceable(32) %5, i8 0, i64 32, i1 false)
  %8 = icmp ugt i64 %1, 15
  br i1 %8, label %.lr.ph, label %_ZN5faiss12simd16uint16C2Ei.exit32._crit_edge

.lr.ph:                                           ; preds = %_ZN5faiss12simd16uint16C2Ei.exit.preheader, %_ZN5faiss12simd16uint168accu_maxERKS0_.exit
  %.02744 = phi i64 [ %19, %_ZN5faiss12simd16uint168accu_maxERKS0_.exit ], [ 0, %_ZN5faiss12simd16uint16C2Ei.exit.preheader ]
  %9 = getelementptr inbounds i16, ptr %0, i64 %.02744
  call void @llvm.memcpy.p0.p0.i64(ptr noundef nonnull align 4 dereferenceable(32) %6, ptr noundef nonnull align 1 dereferenceable(32) %9, i64 32, i1 false)
  br label %10

10:                                               ; preds = %10, %.lr.ph
  %indvars.iv.i = phi i64 [ 0, %.lr.ph ], [ %indvars.iv.next.i, %10 ]
  %11 = getelementptr inbounds [16 x i16], ptr %6, i64 0, i64 %indvars.iv.i
  %12 = load i16, ptr %11, align 2
  %13 = getelementptr inbounds [16 x i16], ptr %4, i64 0, i64 %indvars.iv.i
  %14 = load i16, ptr %13, align 2
  %spec.store.select = tail call i16 @llvm.umin.i16(i16 %12, i16 %14)
  store i16 %spec.store.select, ptr %13, align 2
  %indvars.iv.next.i = add nuw nsw i64 %indvars.iv.i, 1
  %exitcond.not.i = icmp eq i64 %indvars.iv.next.i, 16
  br i1 %exitcond.not.i, label %_ZN5faiss12simd16uint168accu_minERKS0_.exit, label %10, !llvm.loop !30

_ZN5faiss12simd16uint168accu_minERKS0_.exit:      ; preds = %10, %_ZN5faiss12simd16uint168accu_minERKS0_.exit
  %indvars.iv.i33 = phi i64 [ %indvars.iv.next.i34, %_ZN5faiss12simd16uint168accu_minERKS0_.exit ], [ 0, %10 ]
  %15 = getelementptr inbounds [16 x i16], ptr %6, i64 0, i64 %indvars.iv.i33
  %16 = load i16, ptr %15, align 2
  %17 = getelementptr inbounds [16 x i16], ptr %5, i64 0, i64 %indvars.iv.i33
  %18 = load i16, ptr %17, align 2
  %spec.store.select39 = tail call i16 @llvm.umax.i16(i16 %16, i16 %18)
  store i16 %spec.store.select39, ptr %17, align 2
  %indvars.iv.next.i34 = add nuw nsw i64 %indvars.iv.i33, 1
  %exitcond.not.i35 = icmp eq i64 %indvars.iv.next.i34, 16
  br i1 %exitcond.not.i35, label %_ZN5faiss12simd16uint168accu_maxERKS0_.exit, label %_ZN5faiss12simd16uint168accu_minERKS0_.exit, !llvm.loop !31

_ZN5faiss12simd16uint168accu_maxERKS0_.exit:      ; preds = %_ZN5faiss12simd16uint168accu_minERKS0_.exit
  %19 = add i64 %.02744, 16
  %20 = or disjoint i64 %19, 15
  %21 = icmp ult i64 %20, %1
  br i1 %21, label %.lr.ph, label %_ZN5faiss12simd16uint16C2Ei.exit32._crit_edge, !llvm.loop !32

_ZN5faiss12simd16uint16C2Ei.exit32._crit_edge:    ; preds = %_ZN5faiss12simd16uint168accu_maxERKS0_.exit, %_ZN5faiss12simd16uint16C2Ei.exit.preheader
  call void @llvm.memcpy.p0.p0.i64(ptr noundef nonnull align 32 dereferenceable(32) %7, ptr noundef nonnull align 4 dereferenceable(32) %4, i64 32, i1 false)
  %22 = getelementptr inbounds i8, ptr %7, i64 32
  call void @llvm.memcpy.p0.p0.i64(ptr noundef nonnull align 32 dereferenceable(32) %22, ptr noundef nonnull align 4 dereferenceable(32) %5, i64 32, i1 false)
  %23 = load i16, ptr %7, align 32
  store i16 %23, ptr %2, align 2
  %24 = load i16, ptr %22, align 32
  store i16 %24, ptr %3, align 2
  br label %25

25:                                               ; preds = %_ZN5faiss12simd16uint16C2Ei.exit32._crit_edge, %25
  %indvars.iv = phi i64 [ 1, %_ZN5faiss12simd16uint16C2Ei.exit32._crit_edge ], [ %indvars.iv.next, %25 ]
  %26 = getelementptr inbounds [32 x i16], ptr %7, i64 0, i64 %indvars.iv
  %27 = load i16, ptr %26, align 2
  %28 = load i16, ptr %2, align 2
  %29 = tail call i16 @llvm.umin.i16(i16 %27, i16 %28)
  store i16 %29, ptr %2, align 2
  %30 = or disjoint i64 %indvars.iv, 16
  %31 = getelementptr inbounds [32 x i16], ptr %7, i64 0, i64 %30
  %32 = load i16, ptr %3, align 2
  %33 = load i16, ptr %31, align 2
  %34 = tail call i16 @llvm.umax.i16(i16 %32, i16 %33)
  store i16 %34, ptr %3, align 2
  %indvars.iv.next = add nuw nsw i64 %indvars.iv, 1
  %exitcond.not = icmp eq i64 %indvars.iv.next, 16
  br i1 %exitcond.not, label %35, label %25, !llvm.loop !33

35:                                               ; preds = %25
  %36 = and i64 %1, -16
  %.not = icmp eq i64 %36, %1
  br i1 %.not, label %._crit_edge, label %.lr.ph47

.lr.ph47:                                         ; preds = %35, %.lr.ph47
  %.046 = phi i64 [ %44, %.lr.ph47 ], [ %36, %35 ]
  %37 = getelementptr inbounds i16, ptr %0, i64 %.046
  %38 = load i16, ptr %37, align 2
  %39 = load i16, ptr %2, align 2
  %40 = tail call i16 @llvm.umin.i16(i16 %38, i16 %39)
  store i16 %40, ptr %2, align 2
  %41 = load i16, ptr %3, align 2
  %42 = load i16, ptr %37, align 2
  %43 = tail call i16 @llvm.umax.i16(i16 %41, i16 %42)
  store i16 %43, ptr %3, align 2
  %44 = add nuw i64 %.046, 1
  %45 = icmp ult i64 %44, %1
  br i1 %45, label %.lr.ph47, label %._crit_edge, !llvm.loop !34

._crit_edge:                                      ; preds = %.lr.ph47, %35
  ret void
}